target datalayout = "e-m:e-p270:32:32-p271:32:32-p272:64:64-i64:64-i128:128-f80:128-n8:16:32:64-S128"
target triple = "x86_64-pc-linux-gnu"

%struct.usershape_s = type { %struct._dtlink_s, ptr, i32, i8, i8, ptr, i32, ptr, i32, i32, i32, i32, i32, ptr, i64, ptr }
%struct._dtlink_s = type { ptr, %union.anon }
%union.anon = type { ptr }
%struct.point = type { i32, i32 }
%struct.pointf_s = type { double, double }

; Function Attrs: nounwind uwtable
define i64 @gvusershape_size_dpi(ptr noundef %0, double %1, double %2) #0 {
  %4 = alloca %struct.point, align 4
  %5 = alloca %struct.pointf_s, align 8
  %6 = alloca ptr, align 8
  %7 = getelementptr inbounds { double, double }, ptr %5, i32 0, i32 0
  store double %1, ptr %7, align 8
  %8 = getelementptr inbounds { double, double }, ptr %5, i32 0, i32 1
  store double %2, ptr %8, align 8
  store ptr %0, ptr %6, align 8
  %9 = load ptr, ptr %6, align 8
  %10 = icmp ne ptr %9, null
  br i1 %10, label %14, label %11

11:                                               ; preds = %3
  %12 = getelementptr inbounds %struct.point, ptr %4, i32 0, i32 1
  store i32 -1, ptr %12, align 4
  %13 = getelementptr inbounds %struct.point, ptr %4, i32 0, i32 0
  store i32 -1, ptr %13, align 4
  br label %47

14:                                               ; preds = %3
  %15 = load ptr, ptr %6, align 8
  %16 = getelementptr inbounds %struct.usershape_s, ptr %15, i32 0, i32 12
  %17 = load i32, ptr %16, align 8
  %18 = icmp ne i32 %17, 0
  br i1 %18, label %19, label %26

19:                                               ; preds = %14
  %20 = load ptr, ptr %6, align 8
  %21 = getelementptr inbounds %struct.usershape_s, ptr %20, i32 0, i32 12
  %22 = load i32, ptr %21, align 8
  %23 = sitofp i32 %22 to double
  %24 = getelementptr inbounds %struct.pointf_s, ptr %5, i32 0, i32 1
  store double %23, ptr %24, align 8
  %25 = getelementptr inbounds %struct.pointf_s, ptr %5, i32 0, i32 0
  store double %23, ptr %25, align 8
  br label %26

26:                                               ; preds = %19, %14
  %27 = load ptr, ptr %6, align 8
  %28 = getelementptr inbounds %struct.usershape_s, ptr %27, i32 0, i32 10
  %29 = load i32, ptr %28, align 8
  %30 = mul nsw i32 %29, 72
  %31 = sitofp i32 %30 to double
  %32 = getelementptr inbounds %struct.pointf_s, ptr %5, i32 0, i32 0
  %33 = load double, ptr %32, align 8
  %34 = fdiv double %31, %33
  %35 = fptosi double %34 to i32
  %36 = getelementptr inbounds %struct.point, ptr %4, i32 0, i32 0
  store i32 %35, ptr %36, align 4
  %37 = load ptr, ptr %6, align 8
  %38 = getelementptr inbounds %struct.usershape_s, ptr %37, i32 0, i32 11
  %39 = load i32, ptr %38, align 4
  %40 = mul nsw i32 %39, 72
  %41 = sitofp i32 %40 to double
  %42 = getelementptr inbounds %struct.pointf_s, ptr %5, i32 0, i32 1
  %43 = load double, ptr %42, align 8
  %44 = fdiv double %41, %43
  %45 = fptosi double %44 to i32
  %46 = getelementptr inbounds %struct.point, ptr %4, i32 0, i32 1
  store i32 %45, ptr %46, align 4
  br label %47

47:                                               ; preds = %26, %11
  %48 = load i64, ptr %4, align 4
  ret i64 %48
}