; Function Attrs: mustprogress nofree norecurse nosync nounwind willreturn memory(argmem: read) uwtable
define i64 @gvusershape_size_dpi(ptr noundef readonly %0, double %1, double %2) local_unnamed_addr #6 {
  %.not = icmp eq ptr %0, null
  br i1 %.not, label %24, label %4

4:                                                ; preds = %3
  %5 = getelementptr inbounds nuw i8, ptr %0, i64 72
  %6 = load i32, ptr %5, align 8
  %.not8 = icmp eq i32 %6, 0
  %7 = sitofp i32 %6 to double
  %.sroa.3.0 = select i1 %.not8, double %2, double %7
  %.sroa.0.0 = select i1 %.not8, double %1, double %7
  %8 = getelementptr inbounds nuw i8, ptr %0, i64 64
  %9 = load i32, ptr %8, align 8
  %10 = mul nsw i32 %9, 72
  %11 = sitofp i32 %10 to double
  %12 = fdiv double %11, %.sroa.0.0
  %13 = fptosi double %12 to i32
  %14 = getelementptr inbounds nuw i8, ptr %0, i64 68
  %15 = load i32, ptr %14, align 4
  %16 = mul nsw i32 %15, 72
  %17 = sitofp i32 %16 to double
  %18 = fdiv double %17, %.sroa.3.0
  %19 = fptosi double %18 to i32
  %20 = zext i32 %19 to i64
  %21 = shl nuw i64 %20, 32
  %22 = zext i32 %13 to i64
  %23 = or disjoint i64 %21, %22
  br label %24

24:                                               ; preds = %3, %4
  %.sroa.05.0.insert.insert = phi i64 [ %23, %4 ], [ -1, %3 ]
  ret i64 %.sroa.05.0.insert.insert
}